target datalayout = "e-m:e-p270:32:32-p271:32:32-p272:64:64-i64:64-i128:128-f80:128-n8:16:32:64-S128"
target triple = "x86_64-pc-linux-gnu"

%struct.recent_settings_tag = type { i32, i32, i32, i32, i32, i32, i32, i32, i32, i32, i32, i32, i32, i32, i32, i32, i32, i32, i32, i32, i32, i32, i32, i32, i32, i32, i32, i32, i32, i32, i32, i32, i32, i32, i32, i32, ptr, ptr, ptr, i32, i32, ptr, ptr, ptr, ptr, ptr, ptr, i32, ptr, ptr, ptr }
%class.QColor = type <{ i32, %"union.QColor::CT", [2 x i8] }>
%"union.QColor::CT" = type { %struct.anon }
%struct.anon = type { i16, i16, i16, i16, i16 }
%class.ByteViewText = type { %class.QAbstractScrollArea, %class.IDataPrintable, ptr, %class.QByteArray, %class.QColor, %class.QColor, i32, %class.QMenu, i32, i32, i32, i32, i32, i32, i32, i32, i8, i8, i8, i32, i32, i32, %class.QList, i8, %class.QList.5, ptr, ptr, ptr, ptr, ptr, ptr, ptr, ptr }
%class.QAbstractScrollArea = type { %class.QFrame }
%class.QFrame = type { %class.QWidget }
%class.QWidget = type { %class.QObject, %class.QPaintDevice.base, ptr }
%class.QObject = type { ptr, %class.QScopedPointer }
%class.QScopedPointer = type { ptr }
%class.QPaintDevice.base = type <{ ptr, i16 }>
%class.IDataPrintable = type { ptr }
%class.QByteArray = type { %struct.QArrayDataPointer }
%struct.QArrayDataPointer = type { ptr, ptr, i64 }
%class.QMenu = type { %class.QWidget }
%class.QList = type { %struct.QArrayDataPointer.4 }
%struct.QArrayDataPointer.4 = type { ptr, ptr, i64 }
%class.QList.5 = type { %struct.QArrayDataPointer.8 }
%struct.QArrayDataPointer.8 = type { ptr, ptr, i64 }

@recent = external global %struct.recent_settings_tag, align 8

; Function Attrs: mustprogress nounwind uwtable
define void @_ZN12ByteViewText18toggleHoverAllowedEb(ptr noundef nonnull align 8 dereferenceable(328) %0, i1 noundef zeroext %1) #2 align 2 {
  %3 = alloca ptr, align 8
  %4 = alloca i8, align 1
  store ptr %0, ptr %3, align 8
  %5 = zext i1 %1 to i8
  store i8 %5, ptr %4, align 1
  %6 = load ptr, ptr %3, align 8
  %7 = load i8, ptr %4, align 1
  %8 = trunc i8 %7 to i1
  %9 = xor i1 %8, true
  %10 = getelementptr inbounds %class.ByteViewText, ptr %6, i32 0, i32 23
  %11 = zext i1 %9 to i8
  store i8 %11, ptr %10, align 8
  %12 = load i8, ptr %4, align 1
  %13 = trunc i8 %12 to i1
  %14 = zext i1 %13 to i32
  store i32 %14, ptr getelementptr inbounds (%struct.recent_settings_tag, ptr @recent, i32 0, i32 17), align 4
  ret void
}