; Function Attrs: mustprogress nofree norecurse nosync nounwind willreturn memory(write, inaccessiblemem: none) uwtable
define void @_ZN12ByteViewText18toggleHoverAllowedEb(ptr nocapture noundef nonnull writeonly align 8 dereferenceable(328) %0, i1 noundef zeroext %1) #9 align 2 {
  %3 = xor i1 %1, true
  %4 = getelementptr inbounds i8, ptr %0, i64 232
  %5 = zext i1 %3 to i8
  store i8 %5, ptr %4, align 8
  %6 = zext i1 %1 to i32
  store i32 %6, ptr getelementptr inbounds (%struct.recent_settings_tag, ptr @recent, i64 0, i32 17), align 4
  ret void
}